target datalayout = "e-m:e-p270:32:32-p271:32:32-p272:64:64-i64:64-i128:128-f80:128-n8:16:32:64-S128"
target triple = "x86_64-pc-linux-gnu"

%struct.mz_zip_archive_tag = type { i64, i64, i32, i32, i32, ptr, ptr, ptr, ptr, ptr, ptr, ptr, ptr }
%struct.mz_zip_internal_state_tag = type { %struct.mz_zip_array, %struct.mz_zip_array, %struct.mz_zip_array, ptr, ptr, i64, i64 }
%struct.mz_zip_array = type { ptr, i64, i64, i32 }
%struct.stat64 = type { i64, i64, i64, i32, i32, i32, i32, i64, i64, i64, i64, %struct.timespec, %struct.timespec, %struct.timespec, [3 x i64] }
%struct.timespec = type { i64, i64 }

; Function Attrs: mustprogress uwtable
define i32 @mz_zip_writer_end(ptr noundef %0) #5 {
  %2 = alloca ptr, align 8
  %3 = alloca ptr, align 8
  %4 = alloca ptr, align 8
  %5 = alloca ptr, align 8
  %6 = alloca ptr, align 8
  %7 = alloca ptr, align 8
  %8 = alloca i32, align 4
  %9 = alloca ptr, align 8
  %10 = alloca ptr, align 8
  %11 = alloca i32, align 4
  store ptr %0, ptr %9, align 8
  store i32 1, ptr %11, align 4
  %12 = load ptr, ptr %9, align 8
  %13 = icmp ne ptr %12, null
  br i1 %13, label %14, label %39

14:                                               ; preds = %1
  %15 = load ptr, ptr %9, align 8
  %16 = getelementptr inbounds %struct.mz_zip_archive_tag, ptr %15, i32 0, i32 12
  %17 = load ptr, ptr %16, align 8
  %18 = icmp ne ptr %17, null
  br i1 %18, label %19, label %39

19:                                               ; preds = %14
  %20 = load ptr, ptr %9, align 8
  %21 = getelementptr inbounds %struct.mz_zip_archive_tag, ptr %20, i32 0, i32 5
  %22 = load ptr, ptr %21, align 8
  %23 = icmp ne ptr %22, null
  br i1 %23, label %24, label %39

24:                                               ; preds = %19
  %25 = load ptr, ptr %9, align 8
  %26 = getelementptr inbounds %struct.mz_zip_archive_tag, ptr %25, i32 0, i32 6
  %27 = load ptr, ptr %26, align 8
  %28 = icmp ne ptr %27, null
  br i1 %28, label %29, label %39

29:                                               ; preds = %24
  %30 = load ptr, ptr %9, align 8
  %31 = getelementptr inbounds %struct.mz_zip_archive_tag, ptr %30, i32 0, i32 3
  %32 = load i32, ptr %31, align 4
  %33 = icmp ne i32 %32, 2
  br i1 %33, label %34, label %40

34:                                               ; preds = %29
  %35 = load ptr, ptr %9, align 8
  %36 = getelementptr inbounds %struct.mz_zip_archive_tag, ptr %35, i32 0, i32 3
  %37 = load i32, ptr %36, align 4
  %38 = icmp ne i32 %37, 3
  br i1 %38, label %39, label %40

39:                                               ; preds = %34, %24, %19, %14, %1
  store i32 0, ptr %8, align 4
  br label %126

40:                                               ; preds = %34, %29
  %41 = load ptr, ptr %9, align 8
  %42 = getelementptr inbounds %struct.mz_zip_archive_tag, ptr %41, i32 0, i32 12
  %43 = load ptr, ptr %42, align 8
  store ptr %43, ptr %10, align 8
  %44 = load ptr, ptr %9, align 8
  %45 = getelementptr inbounds %struct.mz_zip_archive_tag, ptr %44, i32 0, i32 12
  store ptr null, ptr %45, align 8
  %46 = load ptr, ptr %9, align 8
  %47 = load ptr, ptr %10, align 8
  %48 = getelementptr inbounds %struct.mz_zip_internal_state_tag, ptr %47, i32 0, i32 0
  store ptr %46, ptr %2, align 8
  store ptr %48, ptr %3, align 8
  %49 = load ptr, ptr %2, align 8
  %50 = getelementptr inbounds %struct.mz_zip_archive_tag, ptr %49, i32 0, i32 6
  %51 = load ptr, ptr %50, align 8
  %52 = load ptr, ptr %2, align 8
  %53 = getelementptr inbounds %struct.mz_zip_archive_tag, ptr %52, i32 0, i32 8
  %54 = load ptr, ptr %53, align 8
  %55 = load ptr, ptr %3, align 8
  %56 = load ptr, ptr %55, align 8
  call void %51(ptr noundef %54, ptr noundef %56)
  %57 = load ptr, ptr %3, align 8
  call void @llvm.memset.p0.i64(ptr align 8 %57, i8 0, i64 32, i1 false)
  %58 = load ptr, ptr %9, align 8
  %59 = load ptr, ptr %10, align 8
  %60 = getelementptr inbounds %struct.mz_zip_internal_state_tag, ptr %59, i32 0, i32 1
  store ptr %58, ptr %4, align 8
  store ptr %60, ptr %5, align 8
  %61 = load ptr, ptr %4, align 8
  %62 = getelementptr inbounds %struct.mz_zip_archive_tag, ptr %61, i32 0, i32 6
  %63 = load ptr, ptr %62, align 8
  %64 = load ptr, ptr %4, align 8
  %65 = getelementptr inbounds %struct.mz_zip_archive_tag, ptr %64, i32 0, i32 8
  %66 = load ptr, ptr %65, align 8
  %67 = load ptr, ptr %5, align 8
  %68 = load ptr, ptr %67, align 8
  call void %63(ptr noundef %66, ptr noundef %68)
  %69 = load ptr, ptr %5, align 8
  call void @llvm.memset.p0.i64(ptr align 8 %69, i8 0, i64 32, i1 false)
  %70 = load ptr, ptr %9, align 8
  %71 = load ptr, ptr %10, align 8
  %72 = getelementptr inbounds %struct.mz_zip_internal_state_tag, ptr %71, i32 0, i32 2
  store ptr %70, ptr %6, align 8
  store ptr %72, ptr %7, align 8
  %73 = load ptr, ptr %6, align 8
  %74 = getelementptr inbounds %struct.mz_zip_archive_tag, ptr %73, i32 0, i32 6
  %75 = load ptr, ptr %74, align 8
  %76 = load ptr, ptr %6, align 8
  %77 = getelementptr inbounds %struct.mz_zip_archive_tag, ptr %76, i32 0, i32 8
  %78 = load ptr, ptr %77, align 8
  %79 = load ptr, ptr %7, align 8
  %80 = load ptr, ptr %79, align 8
  call void %75(ptr noundef %78, ptr noundef %80)
  %81 = load ptr, ptr %7, align 8
  call void @llvm.memset.p0.i64(ptr align 8 %81, i8 0, i64 32, i1 false)
  %82 = load ptr, ptr %10, align 8
  %83 = getelementptr inbounds %struct.mz_zip_internal_state_tag, ptr %82, i32 0, i32 3
  %84 = load ptr, ptr %83, align 8
  %85 = icmp ne ptr %84, null
  br i1 %85, label %86, label %93

86:                                               ; preds = %40
  %87 = load ptr, ptr %10, align 8
  %88 = getelementptr inbounds %struct.mz_zip_internal_state_tag, ptr %87, i32 0, i32 3
  %89 = load ptr, ptr %88, align 8
  %90 = call i32 @fclose(ptr noundef %89)
  %91 = load ptr, ptr %10, align 8
  %92 = getelementptr inbounds %struct.mz_zip_internal_state_tag, ptr %91, i32 0, i32 3
  store ptr null, ptr %92, align 8
  br label %93

93:                                               ; preds = %86, %40
  %94 = load ptr, ptr %9, align 8
  %95 = getelementptr inbounds %struct.mz_zip_archive_tag, ptr %94, i32 0, i32 10
  %96 = load ptr, ptr %95, align 8
  %97 = icmp eq ptr %96, @_ZL22mz_zip_heap_write_funcPvyPKvm
  br i1 %97, label %98, label %115

98:                                               ; preds = %93
  %99 = load ptr, ptr %10, align 8
  %100 = getelementptr inbounds %struct.mz_zip_internal_state_tag, ptr %99, i32 0, i32 4
  %101 = load ptr, ptr %100, align 8
  %102 = icmp ne ptr %101, null
  br i1 %102, label %103, label %115

103:                                              ; preds = %98
  %104 = load ptr, ptr %9, align 8
  %105 = getelementptr inbounds %struct.mz_zip_archive_tag, ptr %104, i32 0, i32 6
  %106 = load ptr, ptr %105, align 8
  %107 = load ptr, ptr %9, align 8
  %108 = getelementptr inbounds %struct.mz_zip_archive_tag, ptr %107, i32 0, i32 8
  %109 = load ptr, ptr %108, align 8
  %110 = load ptr, ptr %10, align 8
  %111 = getelementptr inbounds %struct.mz_zip_internal_state_tag, ptr %110, i32 0, i32 4
  %112 = load ptr, ptr %111, align 8
  call void %106(ptr noundef %109, ptr noundef %112)
  %113 = load ptr, ptr %10, align 8
  %114 = getelementptr inbounds %struct.mz_zip_internal_state_tag, ptr %113, i32 0, i32 4
  store ptr null, ptr %114, align 8
  br label %115

115:                                              ; preds = %103, %98, %93
  %116 = load ptr, ptr %9, align 8
  %117 = getelementptr inbounds %struct.mz_zip_archive_tag, ptr %116, i32 0, i32 6
  %118 = load ptr, ptr %117, align 8
  %119 = load ptr, ptr %9, align 8
  %120 = getelementptr inbounds %struct.mz_zip_archive_tag, ptr %119, i32 0, i32 8
  %121 = load ptr, ptr %120, align 8
  %122 = load ptr, ptr %10, align 8
  call void %118(ptr noundef %121, ptr noundef %122)
  %123 = load ptr, ptr %9, align 8
  %124 = getelementptr inbounds %struct.mz_zip_archive_tag, ptr %123, i32 0, i32 3
  store i32 0, ptr %124, align 4
  %125 = load i32, ptr %11, align 4
  store i32 %125, ptr %8, align 4
  br label %126

126:                                              ; preds = %115, %39
  %127 = load i32, ptr %8, align 4
  ret i32 %127
}

; Function Attrs: mustprogress nounwind uwtable
define internal noundef i32 @_ZL35mz_zip_writer_validate_archive_namePKc(ptr noundef %0) #4 {
  %2 = alloca i32, align 4
  %3 = alloca ptr, align 8
  store ptr %0, ptr %3, align 8
  %4 = load ptr, ptr %3, align 8
  %5 = load i8, ptr %4, align 1
  %6 = sext i8 %5 to i32
  %7 = icmp eq i32 %6, 47
  br i1 %7, label %8, label %9

8:                                                ; preds = %1
  store i32 0, ptr %2, align 4
  br label %29

9:                                                ; preds = %1
  br label %10

10:                                               ; preds = %25, %9
  %11 = load ptr, ptr %3, align 8
  %12 = load i8, ptr %11, align 1
  %13 = icmp ne i8 %12, 0
  br i1 %13, label %14, label %28

14:                                               ; preds = %10
  %15 = load ptr, ptr %3, align 8
  %16 = load i8, ptr %15, align 1
  %17 = sext i8 %16 to i32
  %18 = icmp eq i32 %17, 92
  br i1 %18, label %24, label %19

19:                                               ; preds = %14
  %20 = load ptr, ptr %3, align 8
  %21 = load i8, ptr %20, align 1
  %22 = sext i8 %21 to i32
  %23 = icmp eq i32 %22, 58
  br i1 %23, label %24, label %25

24:                                               ; preds = %19, %14
  store i32 0, ptr %2, align 4
  br label %29

25:                                               ; preds = %19
  %26 = load ptr, ptr %3, align 8
  %27 = getelementptr inbounds i8, ptr %26, i32 1
  store ptr %27, ptr %3, align 8
  br label %10, !llvm.loop !204

28:                                               ; preds = %10
  store i32 1, ptr %2, align 4
  br label %29

29:                                               ; preds = %28, %24, %8
  %30 = load i32, ptr %2, align 4
  ret i32 %30
}

; Function Attrs: mustprogress uwtable
define i32 @mz_zip_add_mem_to_archive_file_in_place(ptr noundef %0, ptr noundef %1, ptr noundef %2, i64 noundef %3, ptr noundef %4, i16 noundef zeroext %5, i32 noundef %6) #5 {
  %8 = alloca i32, align 4
  %9 = alloca ptr, align 8
  %10 = alloca ptr, align 8
  %11 = alloca ptr, align 8
  %12 = alloca i64, align 8
  %13 = alloca ptr, align 8
  %14 = alloca i16, align 2
  %15 = alloca i32, align 4
  %16 = alloca i32, align 4
  %17 = alloca i32, align 4
  %18 = alloca %struct.mz_zip_archive_tag, align 8
  %19 = alloca %struct.stat64, align 8
  %20 = alloca i32, align 4
  store ptr %0, ptr %9, align 8
  store ptr %1, ptr %10, align 8
  store ptr %2, ptr %11, align 8
  store i64 %3, ptr %12, align 8
  store ptr %4, ptr %13, align 8
  store i16 %5, ptr %14, align 2
  store i32 %6, ptr %15, align 4
  store i32 0, ptr %17, align 4
  call void @llvm.memset.p0.i64(ptr align 8 %18, i8 0, i64 96, i1 false)
  %21 = load i32, ptr %15, align 4
  %22 = icmp slt i32 %21, 0
  br i1 %22, label %23, label %24

23:                                               ; preds = %7
  store i32 6, ptr %15, align 4
  br label %24

24:                                               ; preds = %23, %7
  %25 = load ptr, ptr %9, align 8
  %26 = icmp ne ptr %25, null
  br i1 %26, label %27, label %46

27:                                               ; preds = %24
  %28 = load ptr, ptr %10, align 8
  %29 = icmp ne ptr %28, null
  br i1 %29, label %30, label %46

30:                                               ; preds = %27
  %31 = load i64, ptr %12, align 8
  %32 = icmp ne i64 %31, 0
  br i1 %32, label %33, label %36

33:                                               ; preds = %30
  %34 = load ptr, ptr %11, align 8
  %35 = icmp ne ptr %34, null
  br i1 %35, label %36, label %46

36:                                               ; preds = %33, %30
  %37 = load i16, ptr %14, align 2
  %38 = icmp ne i16 %37, 0
  br i1 %38, label %39, label %42

39:                                               ; preds = %36
  %40 = load ptr, ptr %13, align 8
  %41 = icmp ne ptr %40, null
  br i1 %41, label %42, label %46

42:                                               ; preds = %39, %36
  %43 = load i32, ptr %15, align 4
  %44 = and i32 %43, 15
  %45 = icmp ugt i32 %44, 10
  br i1 %45, label %46, label %47

46:                                               ; preds = %42, %39, %33, %27, %24
  store i32 0, ptr %8, align 4
  br label %102

47:                                               ; preds = %42
  %48 = load ptr, ptr %10, align 8
  %49 = call noundef i32 @_ZL35mz_zip_writer_validate_archive_namePKc(ptr noundef %48)
  %50 = icmp ne i32 %49, 0
  br i1 %50, label %52, label %51

51:                                               ; preds = %47
  store i32 0, ptr %8, align 4
  br label %102

52:                                               ; preds = %47
  %53 = load ptr, ptr %9, align 8
  %54 = call i32 @stat64(ptr noundef %53, ptr noundef %19) #3
  %55 = icmp ne i32 %54, 0
  br i1 %55, label %56, label %62

56:                                               ; preds = %52
  %57 = load ptr, ptr %9, align 8
  %58 = call i32 @mz_zip_writer_init_file(ptr noundef %18, ptr noundef %57, i64 noundef 0)
  %59 = icmp ne i32 %58, 0
  br i1 %59, label %61, label %60

60:                                               ; preds = %56
  store i32 0, ptr %8, align 4
  br label %102

61:                                               ; preds = %56
  store i32 1, ptr %17, align 4
  br label %76

62:                                               ; preds = %52
  %63 = load ptr, ptr %9, align 8
  %64 = load i32, ptr %15, align 4
  %65 = or i32 %64, 2048
  %66 = call i32 @mz_zip_reader_init_file(ptr noundef %18, ptr noundef %63, i32 noundef %65)
  %67 = icmp ne i32 %66, 0
  br i1 %67, label %69, label %68

68:                                               ; preds = %62
  store i32 0, ptr %8, align 4
  br label %102

69:                                               ; preds = %62
  %70 = load ptr, ptr %9, align 8
  %71 = call i32 @mz_zip_writer_init_from_reader(ptr noundef %18, ptr noundef %70)
  %72 = icmp ne i32 %71, 0
  br i1 %72, label %75, label %73

73:                                               ; preds = %69
  %74 = call i32 @mz_zip_reader_end(ptr noundef %18)
  store i32 0, ptr %8, align 4
  br label %102

75:                                               ; preds = %69
  br label %76

76:                                               ; preds = %75, %61
  %77 = load ptr, ptr %10, align 8
  %78 = load ptr, ptr %11, align 8
  %79 = load i64, ptr %12, align 8
  %80 = load ptr, ptr %13, align 8
  %81 = load i16, ptr %14, align 2
  %82 = load i32, ptr %15, align 4
  %83 = call i32 @mz_zip_writer_add_mem_ex(ptr noundef %18, ptr noundef %77, ptr noundef %78, i64 noundef %79, ptr noundef %80, i16 noundef zeroext %81, i32 noundef %82, i64 noundef 0, i32 noundef 0)
  store i32 %83, ptr %16, align 4
  %84 = call i32 @mz_zip_writer_finalize_archive(ptr noundef %18)
  %85 = icmp ne i32 %84, 0
  br i1 %85, label %87, label %86

86:                                               ; preds = %76
  store i32 0, ptr %16, align 4
  br label %87

87:                                               ; preds = %86, %76
  %88 = call i32 @mz_zip_writer_end(ptr noundef %18)
  %89 = icmp ne i32 %88, 0
  br i1 %89, label %91, label %90

90:                                               ; preds = %87
  store i32 0, ptr %16, align 4
  br label %91

91:                                               ; preds = %90, %87
  %92 = load i32, ptr %16, align 4
  %93 = icmp ne i32 %92, 0
  br i1 %93, label %100, label %94

94:                                               ; preds = %91
  %95 = load i32, ptr %17, align 4
  %96 = icmp ne i32 %95, 0
  br i1 %96, label %97, label %100

97:                                               ; preds = %94
  %98 = load ptr, ptr %9, align 8
  %99 = call i32 @remove(ptr noundef %98) #3
  store i32 %99, ptr %20, align 4
  br label %100

100:                                              ; preds = %97, %94, %91
  %101 = load i32, ptr %16, align 4
  store i32 %101, ptr %8, align 4
  br label %102

102:                                              ; preds = %100, %73, %68, %60, %51, %46
  %103 = load i32, ptr %8, align 4
  ret i32 %103
}