; Function Attrs: mustprogress uwtable
define noundef i32 @mz_zip_add_mem_to_archive_file_in_place(ptr noundef %0, ptr noundef %1, ptr noundef %2, i64 noundef %3, ptr noundef %4, i16 noundef zeroext %5, i32 noundef %6) local_unnamed_addr #9 {
  %8 = alloca %struct.mz_zip_archive_tag, align 8
  %9 = alloca %struct.stat64, align 8
  call void @llvm.memset.p0.i64(ptr noundef nonnull align 8 dereferenceable(96) %8, i8 0, i64 96, i1 false)
  %10 = icmp slt i32 %6, 0
  %spec.store.select = select i1 %10, i32 6, i32 %6
  %11 = icmp ne ptr %0, null
  %12 = icmp ne ptr %1, null
  %or.cond = and i1 %11, %12
  br i1 %or.cond, label %13, label %_ZL35mz_zip_writer_validate_archive_namePKc.exit.thread

13:                                               ; preds = %7
  %14 = icmp eq i64 %3, 0
  %15 = icmp ne ptr %2, null
  %or.cond3 = or i1 %15, %14
  br i1 %or.cond3, label %16, label %_ZL35mz_zip_writer_validate_archive_namePKc.exit.thread

16:                                               ; preds = %13
  %17 = icmp ne i16 %5, 0
  %18 = icmp eq ptr %4, null
  %or.cond5.not51 = and i1 %18, %17
  %19 = and i32 %spec.store.select, 15
  %20 = icmp ugt i32 %19, 10
  %or.cond42 = or i1 %or.cond5.not51, %20
  br i1 %or.cond42, label %_ZL35mz_zip_writer_validate_archive_namePKc.exit.thread, label %21

21:                                               ; preds = %16
  %22 = load i8, ptr %1, align 1
  %23 = icmp eq i8 %22, 47
  br i1 %23, label %_ZL35mz_zip_writer_validate_archive_namePKc.exit.thread, label %.preheader.i

.preheader.i:                                     ; preds = %21, %25
  %24 = phi i8 [ %.pr.i, %25 ], [ %22, %21 ]
  %.0.i = phi ptr [ %26, %25 ], [ %1, %21 ]
  switch i8 %24, label %25 [
    i8 0, label %_ZL35mz_zip_writer_validate_archive_namePKc.exit
    i8 92, label %_ZL35mz_zip_writer_validate_archive_namePKc.exit.thread
    i8 58, label %_ZL35mz_zip_writer_validate_archive_namePKc.exit.thread
  ]

25:                                               ; preds = %.preheader.i
  %26 = getelementptr inbounds i8, ptr %.0.i, i64 1
  %.pr.i = load i8, ptr %26, align 1
  br label %.preheader.i, !llvm.loop !203

_ZL35mz_zip_writer_validate_archive_namePKc.exit: ; preds = %.preheader.i
  %27 = call i32 @stat64(ptr noundef nonnull %0, ptr noundef nonnull %9) #41
  %.not35 = icmp ne i32 %27, 0
  br i1 %.not35, label %28, label %30

28:                                               ; preds = %_ZL35mz_zip_writer_validate_archive_namePKc.exit
  %29 = call i32 @mz_zip_writer_init_file(ptr noundef nonnull %8, ptr noundef nonnull %0, i64 noundef 0), !range !16
  %.not38 = icmp eq i32 %29, 0
  br i1 %.not38, label %_ZL35mz_zip_writer_validate_archive_namePKc.exit.thread, label %37

30:                                               ; preds = %_ZL35mz_zip_writer_validate_archive_namePKc.exit
  %31 = or i32 %spec.store.select, 2048
  %32 = call i32 @mz_zip_reader_init_file(ptr noundef nonnull %8, ptr noundef nonnull %0, i32 noundef %31), !range !16
  %.not36 = icmp eq i32 %32, 0
  br i1 %.not36, label %_ZL35mz_zip_writer_validate_archive_namePKc.exit.thread, label %33

33:                                               ; preds = %30
  %34 = call i32 @mz_zip_writer_init_from_reader(ptr noundef nonnull %8, ptr noundef nonnull %0), !range !16
  %.not37 = icmp eq i32 %34, 0
  br i1 %.not37, label %35, label %37

35:                                               ; preds = %33
  %36 = call i32 @mz_zip_reader_end(ptr noundef nonnull %8), !range !16
  br label %_ZL35mz_zip_writer_validate_archive_namePKc.exit.thread

37:                                               ; preds = %28, %33
  %38 = call i32 @mz_zip_writer_add_mem_ex(ptr noundef nonnull %8, ptr noundef nonnull %1, ptr noundef %2, i64 noundef %3, ptr noundef %4, i16 noundef zeroext %5, i32 noundef %spec.store.select, i64 noundef 0, i32 noundef 0), !range !16
  %39 = call i32 @mz_zip_writer_finalize_archive(ptr noundef nonnull %8), !range !16
  %.not39 = icmp eq i32 %39, 0
  %spec.select = select i1 %.not39, i32 0, i32 %38
  %40 = getelementptr inbounds i8, ptr %8, i64 88
  %41 = load ptr, ptr %40, align 8
  %.not44.i = icmp eq ptr %41, null
  %42 = getelementptr inbounds i8, ptr %8, i64 32
  %43 = load ptr, ptr %42, align 8
  %.not45.i = icmp eq ptr %43, null
  %or.cond49 = select i1 %.not44.i, i1 true, i1 %.not45.i
  br i1 %or.cond49, label %79, label %44

44:                                               ; preds = %37
  %45 = getelementptr inbounds i8, ptr %8, i64 40
  %46 = load ptr, ptr %45, align 8
  %.not46.i = icmp eq ptr %46, null
  br i1 %.not46.i, label %79, label %47

47:                                               ; preds = %44
  %48 = getelementptr inbounds i8, ptr %8, i64 20
  %49 = load i32, ptr %48, align 4
  %50 = and i32 %49, -2
  %switch.i = icmp eq i32 %50, 2
  br i1 %switch.i, label %51, label %79

51:                                               ; preds = %47
  store ptr null, ptr %40, align 8
  %52 = getelementptr inbounds i8, ptr %8, i64 56
  %53 = load ptr, ptr %52, align 8
  %54 = load ptr, ptr %41, align 8
  call void %46(ptr noundef %53, ptr noundef %54)
  call void @llvm.memset.p0.i64(ptr noundef nonnull align 8 dereferenceable(32) %41, i8 0, i64 32, i1 false)
  %55 = getelementptr inbounds i8, ptr %41, i64 32
  %56 = load ptr, ptr %45, align 8
  %57 = load ptr, ptr %52, align 8
  %58 = load ptr, ptr %55, align 8
  call void %56(ptr noundef %57, ptr noundef %58)
  call void @llvm.memset.p0.i64(ptr noundef nonnull align 8 dereferenceable(32) %55, i8 0, i64 32, i1 false)
  %59 = getelementptr inbounds i8, ptr %41, i64 64
  %60 = load ptr, ptr %45, align 8
  %61 = load ptr, ptr %52, align 8
  %62 = load ptr, ptr %59, align 8
  call void %60(ptr noundef %61, ptr noundef %62)
  call void @llvm.memset.p0.i64(ptr noundef nonnull align 8 dereferenceable(32) %59, i8 0, i64 32, i1 false)
  %63 = getelementptr inbounds i8, ptr %41, i64 96
  %64 = load ptr, ptr %63, align 8
  %.not49.i = icmp eq ptr %64, null
  br i1 %.not49.i, label %67, label %65

65:                                               ; preds = %51
  %66 = call i32 @fclose(ptr noundef nonnull %64)
  store ptr null, ptr %63, align 8
  br label %67

67:                                               ; preds = %65, %51
  %68 = getelementptr inbounds i8, ptr %8, i64 72
  %69 = load ptr, ptr %68, align 8
  %70 = icmp eq ptr %69, @_ZL22mz_zip_heap_write_funcPvyPKvm
  br i1 %70, label %71, label %mz_zip_writer_end.exit

71:                                               ; preds = %67
  %72 = getelementptr inbounds i8, ptr %41, i64 104
  %73 = load ptr, ptr %72, align 8
  %.not50.i = icmp eq ptr %73, null
  br i1 %.not50.i, label %mz_zip_writer_end.exit, label %74

74:                                               ; preds = %71
  %75 = load ptr, ptr %45, align 8
  %76 = load ptr, ptr %52, align 8
  call void %75(ptr noundef %76, ptr noundef nonnull %73)
  store ptr null, ptr %72, align 8
  br label %mz_zip_writer_end.exit

mz_zip_writer_end.exit:                           ; preds = %67, %71, %74
  %77 = load ptr, ptr %45, align 8
  %78 = load ptr, ptr %52, align 8
  call void %77(ptr noundef %78, ptr noundef nonnull %41)
  store i32 0, ptr %48, align 4
  br label %79

79:                                               ; preds = %37, %44, %47, %mz_zip_writer_end.exit
  %80 = phi i32 [ %spec.select, %mz_zip_writer_end.exit ], [ 0, %47 ], [ 0, %44 ], [ 0, %37 ]
  %81 = icmp eq i32 %80, 0
  %or.cond7 = and i1 %.not35, %81
  br i1 %or.cond7, label %82, label %_ZL35mz_zip_writer_validate_archive_namePKc.exit.thread

82:                                               ; preds = %79
  %83 = call i32 @remove(ptr noundef nonnull %0) #41
  br label %_ZL35mz_zip_writer_validate_archive_namePKc.exit.thread

_ZL35mz_zip_writer_validate_archive_namePKc.exit.thread: ; preds = %.preheader.i, %.preheader.i, %21, %79, %82, %30, %28, %7, %13, %16, %35
  %.0 = phi i32 [ 0, %35 ], [ 0, %16 ], [ 0, %13 ], [ 0, %7 ], [ 0, %28 ], [ 0, %30 ], [ 0, %82 ], [ %80, %79 ], [ 0, %21 ], [ 0, %.preheader.i ], [ 0, %.preheader.i ]
  ret i32 %.0
}